target datalayout = "e-m:e-p270:32:32-p271:32:32-p272:64:64-i64:64-i128:128-f80:128-n8:16:32:64-S128"
target triple = "x86_64-pc-linux-gnu"

%struct.AVCodecContext = type { ptr, i32, i32, ptr, i32, i32, ptr, ptr, ptr, i64, i32, i32, ptr, i32, %struct.AVRational, %struct.AVRational, %struct.AVRational, i32, i32, i32, i32, i32, %struct.AVRational, i32, i32, i32, i32, i32, i32, i32, i32, i32, i32, i32, ptr, ptr, i32, float, float, float, float, float, float, float, float, float, i32, i32, i32, i32, i32, i32, i32, i32, i32, i32, i32, i32, ptr, ptr, ptr, i32, i32, i32, i32, i32, i32, i32, i32, i32, i32, %struct.AVChannelLayout, i32, i32, i32, i32, i32, i32, i32, i32, ptr, i32, i32, i32, float, float, i32, i32, i32, i32, i32, ptr, i64, i64, float, float, i32, i32, ptr, ptr, i32, i32, i32, i32, i32, ptr, ptr, ptr, ptr, i32, i32, [8 x i64], i32, i32, i32, i32, i32, i32, i32, ptr, ptr, i32, i32, i32, i32, i32, i32, i32, i32, i32, i32, ptr, ptr, i32, i32, ptr, ptr, ptr, ptr, i32, i32, i64, i32, i32, i64, ptr, i64, ptr, i32, ptr, i32 }
%struct.AVRational = type { i32, i32 }
%struct.AVChannelLayout = type { i32, i32, %union.anon.0, ptr }
%union.anon.0 = type { i64 }
%struct.VMIXContext = type { i32, i32, [64 x i16], [64 x i8], ptr, i32, %struct.IDCTDSPContext }
%struct.IDCTDSPContext = type { ptr, ptr, ptr, ptr, ptr, ptr, [64 x i8], i32, i32 }

@ff_zigzag_direct = external constant [64 x i8], align 16

; Function Attrs: cold nounwind optsize uwtable
define internal i32 @decode_init(ptr noundef %0) #0 {
  %2 = alloca ptr, align 8
  %3 = alloca ptr, align 8
  store ptr %0, ptr %2, align 8, !tbaa !4
  call void @llvm.lifetime.start.p0(i64 8, ptr %3) #8
  %4 = load ptr, ptr %2, align 8, !tbaa !4
  %5 = getelementptr inbounds nuw %struct.AVCodecContext, ptr %4, i32 0, i32 6
  %6 = load ptr, ptr %5, align 8, !tbaa !9
  store ptr %6, ptr %3, align 8, !tbaa !29
  %7 = load ptr, ptr %2, align 8, !tbaa !4
  %8 = getelementptr inbounds nuw %struct.AVCodecContext, ptr %7, i32 0, i32 115
  store i32 8, ptr %8, align 4, !tbaa !31
  %9 = load ptr, ptr %2, align 8, !tbaa !4
  %10 = getelementptr inbounds nuw %struct.AVCodecContext, ptr %9, i32 0, i32 23
  store i32 4, ptr %10, align 8, !tbaa !32
  %11 = load ptr, ptr %2, align 8, !tbaa !4
  %12 = getelementptr inbounds nuw %struct.AVCodecContext, ptr %11, i32 0, i32 18
  %13 = load i32, ptr %12, align 8, !tbaa !33
  %14 = add nsw i32 %13, 16
  %15 = sub nsw i32 %14, 1
  %16 = and i32 %15, -16
  %17 = load ptr, ptr %2, align 8, !tbaa !4
  %18 = getelementptr inbounds nuw %struct.AVCodecContext, ptr %17, i32 0, i32 20
  store i32 %16, ptr %18, align 8, !tbaa !34
  %19 = load ptr, ptr %2, align 8, !tbaa !4
  %20 = getelementptr inbounds nuw %struct.AVCodecContext, ptr %19, i32 0, i32 19
  %21 = load i32, ptr %20, align 4, !tbaa !35
  %22 = add nsw i32 %21, 16
  %23 = sub nsw i32 %22, 1
  %24 = and i32 %23, -16
  %25 = load ptr, ptr %2, align 8, !tbaa !4
  %26 = getelementptr inbounds nuw %struct.AVCodecContext, ptr %25, i32 0, i32 21
  store i32 %24, ptr %26, align 4, !tbaa !36
  %27 = load ptr, ptr %3, align 8, !tbaa !29
  %28 = getelementptr inbounds nuw %struct.VMIXContext, ptr %27, i32 0, i32 6
  %29 = load ptr, ptr %2, align 8, !tbaa !4
  call void @ff_idctdsp_init(ptr noundef %28, ptr noundef %29)
  %30 = load ptr, ptr %3, align 8, !tbaa !29
  %31 = getelementptr inbounds nuw %struct.VMIXContext, ptr %30, i32 0, i32 3
  %32 = getelementptr inbounds [64 x i8], ptr %31, i64 0, i64 0
  %33 = load ptr, ptr %3, align 8, !tbaa !29
  %34 = getelementptr inbounds nuw %struct.VMIXContext, ptr %33, i32 0, i32 6
  %35 = getelementptr inbounds nuw %struct.IDCTDSPContext, ptr %34, i32 0, i32 6
  %36 = getelementptr inbounds [64 x i8], ptr %35, i64 0, i64 0
  call void @ff_permute_scantable(ptr noundef %32, ptr noundef @ff_zigzag_direct, ptr noundef %36)
  call void @llvm.lifetime.end.p0(i64 8, ptr %3) #8
  ret i32 0
}