; Function Attrs: cold nounwind optsize uwtable
define internal noundef i32 @decode_init(ptr noundef initializes((120, 128), (136, 140), (652, 656)) %0) #0 {
  %2 = getelementptr inbounds nuw i8, ptr %0, i64 32
  %3 = load ptr, ptr %2, align 8, !tbaa !4
  %4 = getelementptr inbounds nuw i8, ptr %0, i64 652
  store i32 8, ptr %4, align 4, !tbaa !27
  %5 = getelementptr inbounds nuw i8, ptr %0, i64 136
  store i32 4, ptr %5, align 8, !tbaa !28
  %6 = getelementptr inbounds nuw i8, ptr %0, i64 112
  %7 = load i32, ptr %6, align 8, !tbaa !29
  %8 = add nsw i32 %7, 15
  %9 = and i32 %8, -16
  %10 = getelementptr inbounds nuw i8, ptr %0, i64 120
  store i32 %9, ptr %10, align 8, !tbaa !30
  %11 = getelementptr inbounds nuw i8, ptr %0, i64 116
  %12 = load i32, ptr %11, align 4, !tbaa !31
  %13 = add nsw i32 %12, 15
  %14 = and i32 %13, -16
  %15 = getelementptr inbounds nuw i8, ptr %0, i64 124
  store i32 %14, ptr %15, align 4, !tbaa !32
  %16 = getelementptr inbounds nuw i8, ptr %3, i64 216
  tail call void @ff_idctdsp_init(ptr noundef nonnull %16, ptr noundef %0) #6
  %17 = getelementptr inbounds nuw i8, ptr %3, i64 136
  %18 = getelementptr inbounds nuw i8, ptr %3, i64 264
  tail call void @ff_permute_scantable(ptr noundef nonnull %17, ptr noundef nonnull @ff_zigzag_direct, ptr noundef nonnull %18) #6
  ret i32 0
}